; Function Attrs: nounwind uwtable
define internal i32 @dxv_decompress_lzf(ptr noundef readonly captures(none) %0) unnamed_addr #1 {
  %2 = getelementptr inbounds nuw i8, ptr %0, i64 32
  %3 = load ptr, ptr %2, align 8, !tbaa !4
  %4 = getelementptr inbounds nuw i8, ptr %3, i64 120
  %5 = getelementptr inbounds nuw i8, ptr %3, i64 144
  %6 = getelementptr inbounds nuw i8, ptr %3, i64 160
  %7 = tail call i32 @ff_lzf_uncompress(ptr noundef nonnull %4, ptr noundef nonnull %5, ptr noundef nonnull %6) #10
  ret i32 %7
}